; Function Attrs: mustprogress uwtable
define noundef zeroext i1 @_ZN32pxrInternal_v0_24__pxrReserved__8SdfLayer42_WaitForInitializationAndCheckIfSuccessfulEv(ptr noundef nonnull readonly align 8 captures(none) dereferenceable(557) %0) local_unnamed_addr #3 align 2 personality ptr @__gxx_personality_v0 {
  %2 = getelementptr inbounds nuw i8, ptr %0, i64 504
  %3 = load atomic i8, ptr %2 seq_cst, align 8
  %4 = trunc i8 %3 to i1
  br i1 %4, label %._crit_edge, label %.lr.ph

.lr.ph:                                           ; preds = %1, %.lr.ph
  %5 = tail call noundef i32 @sched_yield() #33
  %6 = load atomic i8, ptr %2 seq_cst, align 8
  %7 = trunc i8 %6 to i1
  br i1 %7, label %._crit_edge, label %.lr.ph, !llvm.loop !64

._crit_edge:                                      ; preds = %.lr.ph, %1
  %8 = getelementptr inbounds nuw i8, ptr %0, i64 506
  %9 = load i8, ptr %8, align 2
  %10 = trunc i8 %9 to i1
  br i1 %10, label %_ZNRSt8optionalIbE5valueEv.exit, label %11

11:                                               ; preds = %._crit_edge
  tail call void @_ZSt27__throw_bad_optional_accessv() #31
  unreachable

_ZNRSt8optionalIbE5valueEv.exit:                  ; preds = %._crit_edge
  %12 = getelementptr inbounds nuw i8, ptr %0, i64 505
  %13 = load i8, ptr %12, align 1
  %14 = trunc i8 %13 to i1
  ret i1 %14
}